; Function Attrs: nounwind uwtable
define internal fastcc range(i32 0, 2) i32 @r_shortv(ptr noundef %0) unnamed_addr #0 {
  %2 = getelementptr inbounds nuw i8, ptr %0, i64 12
  %3 = load i32, ptr %2, align 4
  %4 = getelementptr inbounds nuw i8, ptr %0, i64 8
  %5 = load i32, ptr %4, align 8
  %.neg = sub i32 %5, %3
  %6 = tail call i32 @out_grouping_b_U(ptr noundef %0, ptr noundef nonnull @g_v_WXY, i32 noundef 89, i32 noundef 121, i32 noundef 0) #3
  %.not = icmp eq i32 %6, 0
  br i1 %.not, label %7, label %11

7:                                                ; preds = %1
  %8 = tail call i32 @in_grouping_b_U(ptr noundef nonnull %0, ptr noundef nonnull @g_v, i32 noundef 97, i32 noundef 121, i32 noundef 0) #3
  %.not14 = icmp eq i32 %8, 0
  br i1 %.not14, label %9, label %11

9:                                                ; preds = %7
  %10 = tail call i32 @out_grouping_b_U(ptr noundef nonnull %0, ptr noundef nonnull @g_v, i32 noundef 97, i32 noundef 121, i32 noundef 0) #3
  %.not15 = icmp eq i32 %10, 0
  br i1 %.not15, label %22, label %11

11:                                               ; preds = %9, %7, %1
  %12 = load i32, ptr %2, align 4
  %13 = add i32 %.neg, %12
  store i32 %13, ptr %4, align 8
  %14 = tail call i32 @out_grouping_b_U(ptr noundef nonnull %0, ptr noundef nonnull @g_v, i32 noundef 97, i32 noundef 121, i32 noundef 0) #3
  %.not16 = icmp eq i32 %14, 0
  br i1 %.not16, label %15, label %22

15:                                               ; preds = %11
  %16 = tail call i32 @in_grouping_b_U(ptr noundef nonnull %0, ptr noundef nonnull @g_v, i32 noundef 97, i32 noundef 121, i32 noundef 0) #3
  %.not17 = icmp eq i32 %16, 0
  br i1 %.not17, label %17, label %22

17:                                               ; preds = %15
  %18 = load i32, ptr %4, align 8
  %19 = getelementptr inbounds nuw i8, ptr %0, i64 16
  %20 = load i32, ptr %19, align 8
  %.not18 = icmp sle i32 %18, %20
  %21 = zext i1 %.not18 to i32
  br label %22

22:                                               ; preds = %17, %15, %11, %9
  %.0 = phi i32 [ 1, %9 ], [ 0, %11 ], [ 0, %15 ], [ %21, %17 ]
  ret i32 %.0
}